ccopy_reg
_reconstructor
p0
(cpandas.core.frame
DataFrame
p1
c__builtin__
object
p2
Ntp3
Rp4
(dp5
S'_metadata'
p6
(lp7
sS'_typ'
p8
S'dataframe'
p9
sS'_data'
p10
g0
(cpandas.core.internals
BlockManager
p11
g2
Ntp12
Rp13
((lp14
cpandas.indexes.base
_new_Index
p15
(cpandas.indexes.base
Index
p16
(dp17
S'data'
p18
cnumpy.core.multiarray
_reconstruct
p19
(cnumpy
ndarray
p20
(I0
tp21
S'b'
p22
tp23
Rp24
(I1
(L5L
tp25
cnumpy
dtype
p26
(S'O8'
p27
I0
I1
tp28
Rp29
(I3
S'|'
p30
NNNI-1
I-1
I63
tp31
bI00
(lp32
S'weights_2'
p33
aS'weights_1'
p34
aS'bias_1'
p35
aS'bias_2'
p36
aS'customer_number'
p37
atp38
bsS'name'
p39
Nstp40
Rp41
ag15
(cpandas.indexes.range
RangeIndex
p42
(dp43
S'start'
p44
I0
sS'step'
p45
I1
sS'stop'
p46
I2
sg39
Nstp47
Rp48
a(lp49
g19
(g20
(I0
tp50
g22
tp51
Rp52
(I1
(L1L
L2L
tp53
g29
I00
(lp54
g19
(g20
(I0
tp55
g22
tp56
Rp57
(I1
(L2L
L2L
tp58
g26
(S'f8'
p59
I0
I1
tp60
Rp61
(I3
S'<'
p62
NNNI-1
I-1
I0
tp63
bI00
S'\xa6\x9d\xd6\x0c#J!\xc0\x8f\x1e\x18\xe7\x95)\x1e@\xbc\xbe\x0b}\x02i @\xa4\x9b\xe5\xfe\xf2\x84#\xc0'
p64
tp65
bag19
(g20
(I0
tp66
g22
tp67
Rp68
(I1
(L2L
L2L
tp69
g61
I00
S'\x95\x0b!\x03\xe64\xdb?\xe2p\x1e\xfd\xc2M\xd1\xbf\xe5\xf0d\xed\xef\xba\x08@\x08\xe0"\x8cMS\x17\xc0'
p70
tp71
batp72
bag19
(g20
(I0
tp73
g22
tp74
Rp75
(I1
(L1L
L2L
tp76
g29
I00
(lp77
g19
(g20
(I0
tp78
g22
tp79
Rp80
(I1
(L5L
L2L
tp81
g61
I00
S'm3\x92\xd2\xdc\x83\xdc\xbf\x1c\xc8D\xa7\xf1\x93\xf5?\xa3f\xb48\x1e^\xf2\xbf\xb2\xb9\xcb\x95\xe2\xd6\x0c@\xea\x18\x97L\xcf\xc5\x05\xc0\xe46Yv\x9d\xaa0\xc0\\}6/\rL\xc5?q\xefk\xd4\x16\x8c\x01@\x94E\xa8\xbe)T\xcc?\x84Tz\t\x7f,\xde?'
p82
tp83
bag19
(g20
(I0
tp84
g22
tp85
Rp86
(I1
(L5L
L2L
tp87
g61
I00
S'\xd1\xf3l\xcd\x17\xa0\xe4\xbf\xbc\x0b\xee\xc4\xd8\x8d\xfd\xbf+\xb22\xb5<\x14\xf7?`\xd0\xf1\xa6#\\\x00\xc0\x0e5\xe4\xb4Ae\xe9?E\x9b\x95\xd5F\xcc\x0e@\x8c\xe5\x8cj\xf0\x08\xf6?\xbcI\x07U\xd3\x8f\xd0\xbf39\xe9\x8d\r\x80\xe9\xbf\xeb\x8a\x99\xa4\x02R\x00@'
p88
tp89
batp90
bag19
(g20
(I0
tp91
g22
tp92
Rp93
(I1
(L1L
L2L
tp94
g29
I00
(lp95
g19
(g20
(I0
tp96
g22
tp97
Rp98
(I1
(L2L
tp99
g61
I00
S'\x8f.33Xf\x1a@N\xce\xe0D`\xda.@'
p100
tp101
bag19
(g20
(I0
tp102
g22
tp103
Rp104
(I1
(L2L
tp105
g61
I00
S'\x98$\xc9\x93\x1c\xe4\xe1?\xed\x99\xfd^\x96\x84\x02\xc0'
p106
tp107
batp108
bag19
(g20
(I0
tp109
g22
tp110
Rp111
(I1
(L1L
L2L
tp112
g29
I00
(lp113
g19
(g20
(I0
tp114
g22
tp115
Rp116
(I1
(L2L
tp117
g61
I00
S']\x9f\x048\nY\x14\xc0\xe5\x94\xe4\xc7\xd3G\x17@'
p118
tp119
bag19
(g20
(I0
tp120
g22
tp121
Rp122
(I1
(L2L
tp123
g61
I00
S'\x18\xf5\xa6Lh\x0c\xf8?\xe5]\xe2\xd24\x8a\x98?'
p124
tp125
batp126
bag19
(g20
(I0
tp127
g22
tp128
Rp129
(I1
(L1L
L2L
tp130
g26
(S'i8'
p131
I0
I1
tp132
Rp133
(I3
S'<'
p134
NNNI-1
I-1
I0
tp135
bI00
S'\xea\xf3\x03\x00\x00\x00\x00\x00\x0c0\x00\x00\x00\x00\x00\x00'
p136
tp137
ba(lp138
g15
(g16
(dp139
g18
g19
(g20
(I0
tp140
g22
tp141
Rp142
(I1
(L1L
tp143
g29
I00
(lp144
g33
atp145
bsg39
Nstp146
Rp147
ag15
(g16
(dp148
g18
g19
(g20
(I0
tp149
g22
tp150
Rp151
(I1
(L1L
tp152
g29
I00
(lp153
g34
atp154
bsg39
Nstp155
Rp156
ag15
(g16
(dp157
g18
g19
(g20
(I0
tp158
g22
tp159
Rp160
(I1
(L1L
tp161
g29
I00
(lp162
g35
atp163
bsg39
Nstp164
Rp165
ag15
(g16
(dp166
g18
g19
(g20
(I0
tp167
g22
tp168
Rp169
(I1
(L1L
tp170
g29
I00
(lp171
g36
atp172
bsg39
Nstp173
Rp174
ag15
(g16
(dp175
g18
g19
(g20
(I0
tp176
g22
tp177
Rp178
(I1
(L1L
tp179
g29
I00
(lp180
g37
atp181
bsg39
Nstp182
Rp183
a(dp184
S'0.14.1'
p185
(dp186
S'axes'
p187
g14
sS'blocks'
p188
(lp189
(dp190
S'mgr_locs'
p191
c__builtin__
slice
p192
(I0
I1
I1
tp193
Rp194
sS'values'
p195
g52
sa(dp196
g191
g192
(I1
I2
I1
tp197
Rp198
sg195
g75
sa(dp199
g191
g192
(I2
I3
I1
tp200
Rp201
sg195
g93
sa(dp202
g191
g192
(I3
I4
I1
tp203
Rp204
sg195
g111
sa(dp205
g191
g192
(I4
I5
I1
tp206
Rp207
sg195
g129
sasstp208
bsb.